target datalayout = "e-m:e-p270:32:32-p271:32:32-p272:64:64-i64:64-i128:128-f80:128-n8:16:32:64-S128"
target triple = "x86_64-unknown-linux-gnu"

@.str.57 = private unnamed_addr constant [8 x i8] c"Invalid\00", align 1
@.str.58 = private unnamed_addr constant [13 x i8] c"NotSupported\00", align 1
@.str.59 = private unnamed_addr constant [10 x i8] c"FullRange\00", align 1
@.str.60 = private unnamed_addr constant [13 x i8] c"NonLastRange\00", align 1
@.str.61 = private unnamed_addr constant [9 x i8] c"Disabled\00", align 1

; Function Attrs: mustprogress nounwind uwtable
define noundef ptr @_ZN7rocksdb45GetCompactionPenultimateOutputRangeTypeStringENS_10Compaction26PenultimateOutputRangeTypeE(i32 noundef %range_type) #1 {
entry:
  %retval = alloca ptr, align 8
  %range_type.addr = alloca i32, align 4
  store i32 %range_type, ptr %range_type.addr, align 4
  %0 = load i32, ptr %range_type.addr, align 4
  switch i32 %0, label %sw.default [
    i32 0, label %sw.bb
    i32 1, label %sw.bb1
    i32 2, label %sw.bb2
    i32 3, label %sw.bb3
  ]

sw.bb:                                            ; preds = %entry
  store ptr @.str.58, ptr %retval, align 8
  br label %return

sw.bb1:                                           ; preds = %entry
  store ptr @.str.59, ptr %retval, align 8
  br label %return

sw.bb2:                                           ; preds = %entry
  store ptr @.str.60, ptr %retval, align 8
  br label %return

sw.bb3:                                           ; preds = %entry
  store ptr @.str.61, ptr %retval, align 8
  br label %return

sw.default:                                       ; preds = %entry
  store ptr @.str.57, ptr %retval, align 8
  br label %return

return:                                           ; preds = %sw.default, %sw.bb3, %sw.bb2, %sw.bb1, %sw.bb
  %1 = load ptr, ptr %retval, align 8
  ret ptr %1
}