; Function Attrs: mustprogress nofree norecurse nosync nounwind willreturn memory(none) uwtable
define noundef nonnull ptr @_ZN7rocksdb45GetCompactionPenultimateOutputRangeTypeStringENS_10Compaction26PenultimateOutputRangeTypeE(i32 noundef %range_type) local_unnamed_addr #4 {
entry:
  %0 = icmp ult i32 %range_type, 4
  br i1 %0, label %switch.lookup, label %return

switch.lookup:                                    ; preds = %entry
  %1 = zext nneg i32 %range_type to i64
  %switch.gep = getelementptr inbounds [4 x ptr], ptr @switch.table._ZN7rocksdb13CompactionJob13LogCompactionEv.29, i64 0, i64 %1
  %switch.load = load ptr, ptr %switch.gep, align 8
  br label %return

return:                                           ; preds = %entry, %switch.lookup
  %retval.0 = phi ptr [ %switch.load, %switch.lookup ], [ @.str.57, %entry ]
  ret ptr %retval.0
}